; Function Attrs: nounwind uwtable
define internal i32 @persistent_stream_open_function(ptr noundef %0) #0 {
  %2 = load ptr, ptr getelementptr inbounds nuw (i8, ptr @accel_globals, i64 392), align 8, !tbaa !168
  %.not = icmp eq ptr %2, null
  br i1 %.not, label %29, label %3

3:                                                ; preds = %1
  %4 = load ptr, ptr getelementptr inbounds nuw (i8, ptr @executor_globals, i64 512), align 8, !tbaa !152
  %.not6 = icmp eq ptr %4, null
  br i1 %.not6, label %5, label %11

5:                                                ; preds = %3
  %6 = getelementptr inbounds nuw i8, ptr %0, i64 57
  %7 = load i8, ptr %6, align 1, !tbaa !68, !range !37, !noundef !38
  %8 = trunc nuw i8 %7 to i1
  %9 = load ptr, ptr getelementptr inbounds nuw (i8, ptr @accel_globals, i64 384), align 8
  %10 = icmp eq ptr %9, null
  %or.cond = select i1 %8, i1 %10, i1 false
  br i1 %or.cond, label %20, label %.thread

11:                                               ; preds = %3
  %12 = getelementptr inbounds nuw i8, ptr %4, i64 24
  %13 = load ptr, ptr %12, align 8, !tbaa !169
  %.not8 = icmp eq ptr %13, null
  br i1 %.not8, label %.thread, label %14

14:                                               ; preds = %11
  %15 = load i8, ptr %13, align 8, !tbaa !64
  %.not9 = icmp eq i8 %15, 1
  br i1 %.not9, label %.thread, label %16

16:                                               ; preds = %14
  %17 = load ptr, ptr getelementptr inbounds nuw (i8, ptr @accel_globals, i64 384), align 8, !tbaa !171
  %18 = load ptr, ptr %4, align 8, !tbaa !172
  %19 = icmp eq ptr %17, %18
  br i1 %19, label %20, label %.thread

20:                                               ; preds = %5, %16
  %21 = load ptr, ptr %2, align 8, !tbaa !141
  %22 = getelementptr inbounds nuw i8, ptr %21, i64 4
  %23 = load i32, ptr %22, align 4, !tbaa !64
  %24 = and i32 %23, 64
  %.not.i = icmp eq i32 %24, 0
  br i1 %.not.i, label %25, label %zend_string_copy.exit

25:                                               ; preds = %20
  %26 = load i32, ptr %21, align 4, !tbaa !63
  %27 = add i32 %26, 1
  store i32 %27, ptr %21, align 4, !tbaa !63
  br label %zend_string_copy.exit

zend_string_copy.exit:                            ; preds = %20, %25
  %28 = getelementptr inbounds nuw i8, ptr %0, i64 48
  store ptr %21, ptr %28, align 8, !tbaa !77
  br label %32

.thread:                                          ; preds = %5, %16, %14, %11
  tail call void @llvm.memset.p0.i64(ptr noundef nonnull align 8 dereferenceable(16) getelementptr inbounds nuw (i8, ptr @accel_globals, i64 384), i8 0, i64 16, i1 false)
  br label %29

29:                                               ; preds = %.thread, %1
  %30 = load ptr, ptr @accelerator_orig_zend_stream_open_function, align 8, !tbaa !39
  %31 = tail call i32 %30(ptr noundef %0) #26
  br label %32

32:                                               ; preds = %29, %zend_string_copy.exit
  %.0 = phi i32 [ 0, %zend_string_copy.exit ], [ %31, %29 ]
  ret i32 %.0
}